; Function Attrs: mustprogress uwtable
define internal fastcc void @_ZN32pxrInternal_v0_24__pxrReserved__L27_GetStaticUsdAttributeNamesINS_18UsdVolOpenVDBAssetEEERKSt6vectorINS_7TfTokenESaIS3_EEv() unnamed_addr #3 personality ptr @__gxx_personality_v0 {
  %1 = load atomic i8, ptr @_ZGVZN32pxrInternal_v0_24__pxrReserved__L27_GetStaticUsdAttributeNamesINS_18UsdVolOpenVDBAssetEEERKSt6vectorINS_7TfTokenESaIS3_EEvE6result acquire, align 8
  %2 = icmp eq i8 %1, 0
  br i1 %2, label %3, label %12, !prof !4

3:                                                ; preds = %0
  %4 = tail call i32 @__cxa_guard_acquire(ptr nonnull @_ZGVZN32pxrInternal_v0_24__pxrReserved__L27_GetStaticUsdAttributeNamesINS_18UsdVolOpenVDBAssetEEERKSt6vectorINS_7TfTokenESaIS3_EEvE6result) #17
  %.not = icmp eq i32 %4, 0
  br i1 %.not, label %12, label %5

5:                                                ; preds = %3
  %6 = invoke noundef nonnull align 8 dereferenceable(24) ptr @_ZN32pxrInternal_v0_24__pxrReserved__16UsdVolFieldAsset23GetSchemaAttributeNamesEb(i1 noundef zeroext false)
          to label %7 unwind label %13

7:                                                ; preds = %5
  %8 = invoke noundef nonnull align 8 dereferenceable(24) ptr @_ZN32pxrInternal_v0_24__pxrReserved__18UsdVolOpenVDBAsset23GetSchemaAttributeNamesEb(i1 noundef zeroext false)
          to label %9 unwind label %13

9:                                                ; preds = %7
  invoke fastcc void @_ZN32pxrInternal_v0_24__pxrReserved__L26_ConcatenateAttributeNamesERKSt6vectorINS_7TfTokenESaIS1_EES5_(ptr dead_on_unwind noalias nonnull writable align 8 @_ZZN32pxrInternal_v0_24__pxrReserved__L27_GetStaticUsdAttributeNamesINS_18UsdVolOpenVDBAssetEEERKSt6vectorINS_7TfTokenESaIS3_EEvE6result, ptr noundef nonnull align 8 dereferenceable(24) %6, ptr noundef nonnull align 8 dereferenceable(24) %8)
          to label %10 unwind label %13

10:                                               ; preds = %9
  %11 = tail call i32 @__cxa_atexit(ptr nonnull @_ZNSt6vectorIN32pxrInternal_v0_24__pxrReserved__7TfTokenESaIS1_EED2Ev, ptr nonnull @_ZZN32pxrInternal_v0_24__pxrReserved__L27_GetStaticUsdAttributeNamesINS_18UsdVolOpenVDBAssetEEERKSt6vectorINS_7TfTokenESaIS3_EEvE6result, ptr nonnull @__dso_handle) #17
  tail call void @__cxa_guard_release(ptr nonnull @_ZGVZN32pxrInternal_v0_24__pxrReserved__L27_GetStaticUsdAttributeNamesINS_18UsdVolOpenVDBAssetEEERKSt6vectorINS_7TfTokenESaIS3_EEvE6result) #17
  br label %12

12:                                               ; preds = %10, %3, %0
  ret void

13:                                               ; preds = %9, %7, %5
  %14 = landingpad { ptr, i32 }
          cleanup
  tail call void @__cxa_guard_abort(ptr nonnull @_ZGVZN32pxrInternal_v0_24__pxrReserved__L27_GetStaticUsdAttributeNamesINS_18UsdVolOpenVDBAssetEEERKSt6vectorINS_7TfTokenESaIS3_EEvE6result) #17
  resume { ptr, i32 } %14
}